; Function Attrs: mustprogress nofree norecurse nosync nounwind willreturn memory(readwrite, inaccessiblemem: none) uwtable
define noundef i32 @_ZNK6casadi4Lsqr5nfactEPvPKd(ptr nocapture nonnull readnone align 8 %0, ptr nocapture noundef readonly %1, ptr nocapture noundef readonly %2) unnamed_addr #7 align 2 {
  %4 = getelementptr inbounds i8, ptr %1, i64 112
  %5 = getelementptr inbounds i8, ptr %1, i64 120
  %6 = load ptr, ptr %5, align 8
  %7 = load ptr, ptr %4, align 8
  %.not.i.i.i.i.i = icmp eq ptr %6, %7
  br i1 %.not.i.i.i.i.i, label %_ZSt4copyIPKdPdET0_T_S4_S3_.exit, label %8

8:                                                ; preds = %3
  %9 = ptrtoint ptr %7 to i64
  %10 = ptrtoint ptr %6 to i64
  %11 = sub i64 %10, %9
  tail call void @llvm.memmove.p0.p0.i64(ptr align 8 %7, ptr align 8 %2, i64 %11, i1 false)
  br label %_ZSt4copyIPKdPdET0_T_S4_S3_.exit

_ZSt4copyIPKdPdET0_T_S4_S3_.exit:                 ; preds = %3, %8
  ret i32 0
}